; Function Attrs: nounwind uwtable
define hidden void @_glfwHideWindowNull(ptr noundef %0) local_unnamed_addr #0 {
  %2 = load ptr, ptr getelementptr inbounds nuw (i8, ptr @_glfw, i64 142760), align 8, !tbaa !82
  %3 = icmp eq ptr %2, %0
  br i1 %3, label %4, label %5

4:                                                ; preds = %1
  store ptr null, ptr getelementptr inbounds nuw (i8, ptr @_glfw, i64 142760), align 8, !tbaa !82
  tail call void @_glfwInputWindowFocus(ptr noundef %0, i32 noundef 0) #11
  br label %5

5:                                                ; preds = %4, %1
  %6 = getelementptr inbounds nuw i8, ptr %0, i64 3384
  store i32 0, ptr %6, align 8, !tbaa !65
  ret void
}